; Function Attrs: mustprogress uwtable
define internal { double, double } @_ZL16pipeline_reverse5PJ_XYP8PJconsts(double %0, double %1, ptr noundef readonly captures(none) %2) #0 {
  %.sroa.8.sroa.7 = alloca [2 x double], align 8
  %4 = alloca %union.PJ_COORD, align 8
  %5 = alloca %union.PJ_COORD, align 8
  call void @llvm.lifetime.start.p0(i64 16, ptr nonnull %.sroa.8.sroa.7)
  call void @llvm.memset.p0.i64(ptr noundef nonnull align 8 dereferenceable(16) %.sroa.8.sroa.7, i8 0, i64 16, i1 false)
  %6 = getelementptr inbounds nuw i8, ptr %2, i64 88
  %7 = load ptr, ptr %6, align 8, !tbaa !77
  %8 = getelementptr inbounds nuw i8, ptr %7, i64 16
  %9 = getelementptr i8, ptr %7, i64 24
  %.val = load ptr, ptr %9, align 8, !tbaa !120
  %.val1626 = load ptr, ptr %8, align 8, !tbaa !120
  %.not27 = icmp eq ptr %.val, %.val1626
  br i1 %.not27, label %._crit_edge, label %.lr.ph

.lr.ph:                                           ; preds = %3
  %.sroa.8.0..sroa_idx = getelementptr inbounds nuw i8, ptr %5, i64 8
  %.sroa.8.sroa.7.0..sroa.8.0..sroa_idx.sroa_idx = getelementptr inbounds nuw i8, ptr %5, i64 16
  %.sroa.8.0..sroa_idx7 = getelementptr inbounds nuw i8, ptr %4, i64 8
  %.sroa.8.sroa.7.0..sroa.8.0..sroa_idx7.sroa_idx = getelementptr inbounds nuw i8, ptr %4, i64 16
  br label %10

10:                                               ; preds = %.lr.ph, %18
  %.val1636 = phi ptr [ %.val1626, %.lr.ph ], [ %.val16, %18 ]
  %.sroa.8.sroa.0.030 = phi double [ %1, %.lr.ph ], [ %.sroa.8.sroa.0.3.ph, %18 ]
  %.sroa.0.029 = phi double [ %0, %.lr.ph ], [ %.sroa.0.3.ph, %18 ]
  %.sroa.020.028 = phi ptr [ %.val, %.lr.ph ], [ %11, %18 ]
  %11 = getelementptr inbounds i8, ptr %.sroa.020.028, i64 -16
  %12 = getelementptr inbounds i8, ptr %.sroa.020.028, i64 -7
  %13 = load i8, ptr %12, align 1, !tbaa !112, !range !115, !noundef !116
  %14 = trunc nuw i8 %13 to i1
  br i1 %14, label %18, label %15

15:                                               ; preds = %10
  call void @llvm.lifetime.start.p0(i64 32, ptr nonnull %4) #19
  %16 = load ptr, ptr %11, align 8, !tbaa !109
  store double %.sroa.0.029, ptr %5, align 8
  store double %.sroa.8.sroa.0.030, ptr %.sroa.8.0..sroa_idx, align 8
  call void @llvm.memcpy.p0.p0.i64(ptr noundef nonnull align 8 dereferenceable(16) %.sroa.8.sroa.7.0..sroa.8.0..sroa_idx.sroa_idx, ptr noundef nonnull align 8 dereferenceable(16) %.sroa.8.sroa.7, i64 16, i1 false), !tbaa.struct !139
  call void @_Z18pj_approx_2D_transP8PJconsts12PJ_DIRECTION8PJ_COORD(ptr dead_on_unwind nonnull writable sret(%union.PJ_COORD) align 8 %4, ptr noundef %16, i32 noundef -1, ptr noundef nonnull byval(%union.PJ_COORD) align 8 %5)
  %.sroa.0.0.copyload4 = load double, ptr %4, align 8
  %.sroa.8.sroa.0.0.copyload12 = load double, ptr %.sroa.8.0..sroa_idx7, align 8
  call void @llvm.memcpy.p0.p0.i64(ptr noundef nonnull align 8 dereferenceable(16) %.sroa.8.sroa.7, ptr noundef nonnull align 8 dereferenceable(16) %.sroa.8.sroa.7.0..sroa.8.0..sroa_idx7.sroa_idx, i64 16, i1 false), !tbaa.struct !139
  call void @llvm.lifetime.end.p0(i64 32, ptr nonnull %4) #19
  %17 = fcmp oeq double %.sroa.0.0.copyload4, 0x7FF0000000000000
  br i1 %17, label %._crit_edge, label %._crit_edge35

._crit_edge35:                                    ; preds = %15
  %.val16.pre = load ptr, ptr %8, align 8, !tbaa !120
  br label %18

18:                                               ; preds = %._crit_edge35, %10
  %.val16 = phi ptr [ %.val1636, %10 ], [ %.val16.pre, %._crit_edge35 ]
  %.sroa.0.3.ph = phi double [ %.sroa.0.029, %10 ], [ %.sroa.0.0.copyload4, %._crit_edge35 ]
  %.sroa.8.sroa.0.3.ph = phi double [ %.sroa.8.sroa.0.030, %10 ], [ %.sroa.8.sroa.0.0.copyload12, %._crit_edge35 ]
  %.not = icmp eq ptr %11, %.val16
  br i1 %.not, label %._crit_edge, label %10, !llvm.loop !140

._crit_edge:                                      ; preds = %18, %15, %3
  %.sroa.0.1 = phi double [ %0, %3 ], [ 0x7FF0000000000000, %15 ], [ %.sroa.0.3.ph, %18 ]
  %.sroa.8.sroa.0.1 = phi double [ %1, %3 ], [ %.sroa.8.sroa.0.0.copyload12, %15 ], [ %.sroa.8.sroa.0.3.ph, %18 ]
  call void @llvm.lifetime.end.p0(i64 16, ptr nonnull %.sroa.8.sroa.7)
  %.fca.0.insert = insertvalue { double, double } poison, double %.sroa.0.1, 0
  %.fca.1.insert = insertvalue { double, double } %.fca.0.insert, double %.sroa.8.sroa.0.1, 1
  ret { double, double } %.fca.1.insert
}